target datalayout = "e-m:e-p270:32:32-p271:32:32-p272:64:64-i64:64-i128:128-f80:128-n8:16:32:64-S128"
target triple = "x86_64-pc-linux-gnu"

; Function Attrs: mustprogress uwtable
define void @_ZN32pxrInternal_v0_24__pxrReserved__16HfPluginRegistry13ReleasePluginEPNS_12HfPluginBaseE(ptr noundef nonnull align 8 dereferenceable(89) %0, ptr noundef %1) #4 align 2 {
  %3 = alloca ptr, align 8
  %4 = alloca ptr, align 8
  %5 = alloca ptr, align 8
  store ptr %0, ptr %3, align 8
  store ptr %1, ptr %4, align 8
  %6 = load ptr, ptr %3, align 8
  %7 = load ptr, ptr %4, align 8
  %8 = icmp eq ptr %7, null
  br i1 %8, label %9, label %10

9:                                                ; preds = %2
  br label %18

10:                                               ; preds = %2
  %11 = load ptr, ptr %4, align 8
  %12 = call noundef ptr @_ZN32pxrInternal_v0_24__pxrReserved__16HfPluginRegistry18_GetEntryForPluginEPNS_12HfPluginBaseE(ptr noundef nonnull align 8 dereferenceable(89) %6, ptr noundef %11)
  store ptr %12, ptr %5, align 8
  %13 = load ptr, ptr %5, align 8
  %14 = icmp eq ptr %13, null
  br i1 %14, label %15, label %16

15:                                               ; preds = %10
  br label %18

16:                                               ; preds = %10
  %17 = load ptr, ptr %5, align 8
  call void @_ZN32pxrInternal_v0_24__pxrReserved__14Hf_PluginEntry11DecRefCountEv(ptr noundef nonnull align 8 dereferenceable(64) %17)
  br label %18

18:                                               ; preds = %16, %15, %9
  ret void
}