; Function Attrs: mustprogress uwtable
define void @_ZN32pxrInternal_v0_24__pxrReserved__16HfPluginRegistry13ReleasePluginEPNS_12HfPluginBaseE(ptr noundef nonnull align 8 dereferenceable(89) %0, ptr noundef %1) local_unnamed_addr #4 align 2 {
  %3 = icmp eq ptr %1, null
  br i1 %3, label %8, label %4

4:                                                ; preds = %2
  %5 = tail call noundef ptr @_ZN32pxrInternal_v0_24__pxrReserved__16HfPluginRegistry18_GetEntryForPluginEPNS_12HfPluginBaseE(ptr noundef nonnull align 8 dereferenceable(89) %0, ptr noundef nonnull %1)
  %6 = icmp eq ptr %5, null
  br i1 %6, label %8, label %7

7:                                                ; preds = %4
  tail call void @_ZN32pxrInternal_v0_24__pxrReserved__14Hf_PluginEntry11DecRefCountEv(ptr noundef nonnull align 8 dereferenceable(64) %5)
  br label %8

8:                                                ; preds = %4, %2, %7
  ret void
}